target datalayout = "e-m:e-p270:32:32-p271:32:32-p272:64:64-i64:64-i128:128-f80:128-n8:16:32:64-S128"
target triple = "x86_64-pc-linux-gnu"

%struct.PJconsts = type { ptr, ptr, ptr, ptr, ptr, ptr, ptr, ptr, ptr, ptr, ptr, ptr, i32, ptr, ptr, ptr, ptr, ptr, ptr, ptr, ptr, double, double, double, double, double, double, double, double, double, double, double, double, double, double, double, double, double, double, double, double, double, double, i32, i32, i32, i32, i32, i32, i32, i32, i32, i32, i32, ptr, ptr, ptr, ptr, ptr, ptr, double, double, double, double, double, double, double, double, double, double, double, i32, [7 x double], i32, ptr, ptr, double, double, i32, [4 x i8], %"class.std::shared_ptr", i8, double, i8, %"class.std::__cxx11::basic_string", %"class.std::__cxx11::basic_string", %"class.std::__cxx11::basic_string", i8, %"class.std::vector", i32, %"class.std::vector.3", i32, i8, i8, i8, ptr }
%"class.std::shared_ptr" = type { %"class.std::__shared_ptr" }
%"class.std::__shared_ptr" = type { ptr, %"class.std::__shared_count" }
%"class.std::__shared_count" = type { ptr }
%"class.std::__cxx11::basic_string" = type { %"struct.std::__cxx11::basic_string<char>::_Alloc_hider", i64, %union.anon }
%"struct.std::__cxx11::basic_string<char>::_Alloc_hider" = type { ptr }
%union.anon = type { i64, [8 x i8] }
%"class.std::vector" = type { %"struct.std::_Vector_base" }
%"struct.std::_Vector_base" = type { %"struct.std::_Vector_base<osgeo::proj::operation::GridDescription, std::allocator<osgeo::proj::operation::GridDescription>>::_Vector_impl" }
%"struct.std::_Vector_base<osgeo::proj::operation::GridDescription, std::allocator<osgeo::proj::operation::GridDescription>>::_Vector_impl" = type { %"struct.std::_Vector_base<osgeo::proj::operation::GridDescription, std::allocator<osgeo::proj::operation::GridDescription>>::_Vector_impl_data" }
%"struct.std::_Vector_base<osgeo::proj::operation::GridDescription, std::allocator<osgeo::proj::operation::GridDescription>>::_Vector_impl_data" = type { ptr, ptr, ptr }
%"class.std::vector.3" = type { %"struct.std::_Vector_base.4" }
%"struct.std::_Vector_base.4" = type { %"struct.std::_Vector_base<PJCoordOperation, std::allocator<PJCoordOperation>>::_Vector_impl" }
%"struct.std::_Vector_base<PJCoordOperation, std::allocator<PJCoordOperation>>::_Vector_impl" = type { %"struct.std::_Vector_base<PJCoordOperation, std::allocator<PJCoordOperation>>::_Vector_impl_data" }
%"struct.std::_Vector_base<PJCoordOperation, std::allocator<PJCoordOperation>>::_Vector_impl_data" = type { ptr, ptr, ptr }
%"class.__gnu_cxx::__normal_iterator" = type { ptr }
%"struct.(anonymous namespace)::Pipeline" = type { ptr, ptr, %"class.std::vector.16", [4 x %"class.std::stack"] }
%"class.std::vector.16" = type { %"struct.std::_Vector_base.17" }
%"struct.std::_Vector_base.17" = type { %"struct.std::_Vector_base<(anonymous namespace)::Step, std::allocator<(anonymous namespace)::Step>>::_Vector_impl" }
%"struct.std::_Vector_base<(anonymous namespace)::Step, std::allocator<(anonymous namespace)::Step>>::_Vector_impl" = type { %"struct.std::_Vector_base<(anonymous namespace)::Step, std::allocator<(anonymous namespace)::Step>>::_Vector_impl_data" }
%"struct.std::_Vector_base<(anonymous namespace)::Step, std::allocator<(anonymous namespace)::Step>>::_Vector_impl_data" = type { ptr, ptr, ptr }
%"class.std::stack" = type { %"class.std::deque" }
%"class.std::deque" = type { %"class.std::_Deque_base" }
%"class.std::_Deque_base" = type { %"struct.std::_Deque_base<double, std::allocator<double>>::_Deque_impl" }
%"struct.std::_Deque_base<double, std::allocator<double>>::_Deque_impl" = type { %"struct.std::_Deque_base<double, std::allocator<double>>::_Deque_impl_data" }
%"struct.std::_Deque_base<double, std::allocator<double>>::_Deque_impl_data" = type { ptr, i64, %"struct.std::_Deque_iterator", %"struct.std::_Deque_iterator" }
%"struct.std::_Deque_iterator" = type { ptr, ptr, ptr, ptr }
%"struct.(anonymous namespace)::Step" = type <{ ptr, i8, i8, [6 x i8] }>
%struct.PJ_XYZT = type { double, double, double, double }
%"class.std::reverse_iterator" = type { %"class.__gnu_cxx::__normal_iterator" }
%struct.PJ_XYZ = type { double, double, double }
%struct.PJ_LPZ = type { double, double, double }
%union.PJ_COORD = type { [4 x double] }

; Function Attrs: mustprogress nounwind uwtable
define internal noundef nonnull align 8 dereferenceable(8) ptr @_ZNK9__gnu_cxx17__normal_iteratorIPN12_GLOBAL__N_14StepESt6vectorIS2_SaIS2_EEE4baseEv(ptr noundef nonnull align 8 dereferenceable(8) %0) #7 align 2 {
  %2 = alloca ptr, align 8
  store ptr %0, ptr %2, align 8, !tbaa !144
  %3 = load ptr, ptr %2, align 8
  %4 = getelementptr inbounds nuw %"class.__gnu_cxx::__normal_iterator", ptr %3, i32 0, i32 0
  ret ptr %4
}

; Function Attrs: inlinehint mustprogress nounwind uwtable
define internal noundef zeroext i1 @_ZN9__gnu_cxxeqIPN12_GLOBAL__N_14StepESt6vectorIS2_SaIS2_EEEEbRKNS_17__normal_iteratorIT_T0_EESC_(ptr noundef nonnull align 8 dereferenceable(8) %0, ptr noundef nonnull align 8 dereferenceable(8) %1) #10 {
  %3 = alloca ptr, align 8
  %4 = alloca ptr, align 8
  store ptr %0, ptr %3, align 8, !tbaa !144
  store ptr %1, ptr %4, align 8, !tbaa !144
  %5 = load ptr, ptr %3, align 8, !tbaa !144
  %6 = call noundef nonnull align 8 dereferenceable(8) ptr @_ZNK9__gnu_cxx17__normal_iteratorIPN12_GLOBAL__N_14StepESt6vectorIS2_SaIS2_EEE4baseEv(ptr noundef nonnull align 8 dereferenceable(8) %5) #18
  %7 = load ptr, ptr %6, align 8, !tbaa !106
  %8 = load ptr, ptr %4, align 8, !tbaa !144
  %9 = call noundef nonnull align 8 dereferenceable(8) ptr @_ZNK9__gnu_cxx17__normal_iteratorIPN12_GLOBAL__N_14StepESt6vectorIS2_SaIS2_EEE4baseEv(ptr noundef nonnull align 8 dereferenceable(8) %8) #18
  %10 = load ptr, ptr %9, align 8, !tbaa !106
  %11 = icmp eq ptr %7, %10
  ret i1 %11
}

; Function Attrs: mustprogress nounwind uwtable
define internal ptr @_ZNKSt16reverse_iteratorIN9__gnu_cxx17__normal_iteratorIPN12_GLOBAL__N_14StepESt6vectorIS3_SaIS3_EEEEE4baseEv(ptr noundef nonnull align 8 dereferenceable(8) %0) #7 align 2 {
  %2 = alloca %"class.__gnu_cxx::__normal_iterator", align 8
  %3 = alloca ptr, align 8
  store ptr %0, ptr %3, align 8, !tbaa !194
  %4 = load ptr, ptr %3, align 8
  %5 = getelementptr inbounds nuw %"class.std::reverse_iterator", ptr %4, i32 0, i32 0
  call void @llvm.memcpy.p0.p0.i64(ptr align 8 %2, ptr align 8 %5, i64 8, i1 false), !tbaa.struct !196
  %6 = getelementptr inbounds nuw %"class.__gnu_cxx::__normal_iterator", ptr %2, i32 0, i32 0
  %7 = load ptr, ptr %6, align 8
  ret ptr %7
}

; Function Attrs: mustprogress nounwind uwtable
define internal void @_ZN9__gnu_cxx17__normal_iteratorIPN12_GLOBAL__N_14StepESt6vectorIS2_SaIS2_EEEC2ERKS3_(ptr noundef nonnull align 8 dereferenceable(8) %0, ptr noundef nonnull align 8 dereferenceable(8) %1) unnamed_addr #7 align 2 {
  %3 = alloca ptr, align 8
  %4 = alloca ptr, align 8
  store ptr %0, ptr %3, align 8, !tbaa !144
  store ptr %1, ptr %4, align 8, !tbaa !217
  %5 = load ptr, ptr %3, align 8
  %6 = getelementptr inbounds nuw %"class.__gnu_cxx::__normal_iterator", ptr %5, i32 0, i32 0
  %7 = load ptr, ptr %4, align 8, !tbaa !217
  %8 = load ptr, ptr %7, align 8, !tbaa !106
  store ptr %8, ptr %6, align 8, !tbaa !146
  ret void
}

; Function Attrs: mustprogress nounwind uwtable
define internal noundef nonnull align 8 dereferenceable(10) ptr @_ZNK9__gnu_cxx17__normal_iteratorIPN12_GLOBAL__N_14StepESt6vectorIS2_SaIS2_EEEdeEv(ptr noundef nonnull align 8 dereferenceable(8) %0) #7 align 2 {
  %2 = alloca ptr, align 8
  store ptr %0, ptr %2, align 8, !tbaa !144
  %3 = load ptr, ptr %2, align 8
  %4 = getelementptr inbounds nuw %"class.__gnu_cxx::__normal_iterator", ptr %3, i32 0, i32 0
  %5 = load ptr, ptr %4, align 8, !tbaa !146
  ret ptr %5
}

; Function Attrs: mustprogress nounwind uwtable
define internal noundef nonnull align 8 dereferenceable(8) ptr @_ZN9__gnu_cxx17__normal_iteratorIPN12_GLOBAL__N_14StepESt6vectorIS2_SaIS2_EEEmmEv(ptr noundef nonnull align 8 dereferenceable(8) %0) #7 align 2 {
  %2 = alloca ptr, align 8
  store ptr %0, ptr %2, align 8, !tbaa !144
  %3 = load ptr, ptr %2, align 8
  %4 = getelementptr inbounds nuw %"class.__gnu_cxx::__normal_iterator", ptr %3, i32 0, i32 0
  %5 = load ptr, ptr %4, align 8, !tbaa !146
  %6 = getelementptr inbounds %"struct.(anonymous namespace)::Step", ptr %5, i32 -1
  store ptr %6, ptr %4, align 8, !tbaa !146
  ret ptr %3
}

; Function Attrs: inlinehint mustprogress nounwind uwtable
define internal noundef zeroext i1 @_ZSteqIN9__gnu_cxx17__normal_iteratorIPN12_GLOBAL__N_14StepESt6vectorIS3_SaIS3_EEEEEbRKSt16reverse_iteratorIT_ESD_(ptr noundef nonnull align 8 dereferenceable(8) %0, ptr noundef nonnull align 8 dereferenceable(8) %1) #10 {
  %3 = alloca ptr, align 8
  %4 = alloca ptr, align 8
  %5 = alloca %"class.__gnu_cxx::__normal_iterator", align 8
  %6 = alloca %"class.__gnu_cxx::__normal_iterator", align 8
  store ptr %0, ptr %3, align 8, !tbaa !194
  store ptr %1, ptr %4, align 8, !tbaa !194
  call void @llvm.lifetime.start.p0(i64 8, ptr %5) #18
  %7 = load ptr, ptr %3, align 8, !tbaa !194
  %8 = call ptr @_ZNKSt16reverse_iteratorIN9__gnu_cxx17__normal_iteratorIPN12_GLOBAL__N_14StepESt6vectorIS3_SaIS3_EEEEE4baseEv(ptr noundef nonnull align 8 dereferenceable(8) %7) #18
  %9 = getelementptr inbounds nuw %"class.__gnu_cxx::__normal_iterator", ptr %5, i32 0, i32 0
  store ptr %8, ptr %9, align 8
  call void @llvm.lifetime.start.p0(i64 8, ptr %6) #18
  %10 = load ptr, ptr %4, align 8, !tbaa !194
  %11 = call ptr @_ZNKSt16reverse_iteratorIN9__gnu_cxx17__normal_iteratorIPN12_GLOBAL__N_14StepESt6vectorIS3_SaIS3_EEEEE4baseEv(ptr noundef nonnull align 8 dereferenceable(8) %10) #18
  %12 = getelementptr inbounds nuw %"class.__gnu_cxx::__normal_iterator", ptr %6, i32 0, i32 0
  store ptr %11, ptr %12, align 8
  %13 = call noundef zeroext i1 @_ZN9__gnu_cxxeqIPN12_GLOBAL__N_14StepESt6vectorIS2_SaIS2_EEEEbRKNS_17__normal_iteratorIT_T0_EESC_(ptr noundef nonnull align 8 dereferenceable(8) %5, ptr noundef nonnull align 8 dereferenceable(8) %6) #18
  call void @llvm.lifetime.end.p0(i64 8, ptr %6) #18
  call void @llvm.lifetime.end.p0(i64 8, ptr %5) #18
  ret i1 %13
}

; Function Attrs: mustprogress nounwind uwtable
define internal ptr @_ZNSt6vectorIN12_GLOBAL__N_14StepESaIS1_EE5beginEv(ptr noundef nonnull align 8 dereferenceable(24) %0) #7 align 2 {
  %2 = alloca %"class.__gnu_cxx::__normal_iterator", align 8
  %3 = alloca ptr, align 8
  store ptr %0, ptr %3, align 8, !tbaa !104
  %4 = load ptr, ptr %3, align 8
  %5 = getelementptr inbounds nuw %"struct.std::_Vector_base.17", ptr %4, i32 0, i32 0
  %6 = getelementptr inbounds nuw %"struct.std::_Vector_base<(anonymous namespace)::Step, std::allocator<(anonymous namespace)::Step>>::_Vector_impl_data", ptr %5, i32 0, i32 0
  call void @_ZN9__gnu_cxx17__normal_iteratorIPN12_GLOBAL__N_14StepESt6vectorIS2_SaIS2_EEEC2ERKS3_(ptr noundef nonnull align 8 dereferenceable(8) %2, ptr noundef nonnull align 8 dereferenceable(8) %6) #18
  %7 = getelementptr inbounds nuw %"class.__gnu_cxx::__normal_iterator", ptr %2, i32 0, i32 0
  %8 = load ptr, ptr %7, align 8
  ret ptr %8
}

; Function Attrs: mustprogress nounwind uwtable
define internal void @_ZNSt16reverse_iteratorIN9__gnu_cxx17__normal_iteratorIPN12_GLOBAL__N_14StepESt6vectorIS3_SaIS3_EEEEEC2ES8_(ptr noundef nonnull align 8 dereferenceable(8) %0, ptr %1) unnamed_addr #7 align 2 {
  %3 = alloca %"class.__gnu_cxx::__normal_iterator", align 8
  %4 = alloca ptr, align 8
  %5 = getelementptr inbounds nuw %"class.__gnu_cxx::__normal_iterator", ptr %3, i32 0, i32 0
  store ptr %1, ptr %5, align 8
  store ptr %0, ptr %4, align 8, !tbaa !194
  %6 = load ptr, ptr %4, align 8
  %7 = getelementptr inbounds nuw %"class.std::reverse_iterator", ptr %6, i32 0, i32 0
  call void @llvm.memcpy.p0.p0.i64(ptr align 8 %7, ptr align 8 %3, i64 8, i1 false), !tbaa.struct !196
  ret void
}

; Function Attrs: mustprogress nounwind uwtable
define internal ptr @_ZNSt6vectorIN12_GLOBAL__N_14StepESaIS1_EE3endEv(ptr noundef nonnull align 8 dereferenceable(24) %0) #7 align 2 {
  %2 = alloca %"class.__gnu_cxx::__normal_iterator", align 8
  %3 = alloca ptr, align 8
  store ptr %0, ptr %3, align 8, !tbaa !104
  %4 = load ptr, ptr %3, align 8
  %5 = getelementptr inbounds nuw %"struct.std::_Vector_base.17", ptr %4, i32 0, i32 0
  %6 = getelementptr inbounds nuw %"struct.std::_Vector_base<(anonymous namespace)::Step, std::allocator<(anonymous namespace)::Step>>::_Vector_impl_data", ptr %5, i32 0, i32 1
  call void @_ZN9__gnu_cxx17__normal_iteratorIPN12_GLOBAL__N_14StepESt6vectorIS2_SaIS2_EEEC2ERKS3_(ptr noundef nonnull align 8 dereferenceable(8) %2, ptr noundef nonnull align 8 dereferenceable(8) %6) #18
  %7 = getelementptr inbounds nuw %"class.__gnu_cxx::__normal_iterator", ptr %2, i32 0, i32 0
  %8 = load ptr, ptr %7, align 8
  ret ptr %8
}

; Function Attrs: mustprogress nounwind uwtable
define internal noundef nonnull align 8 dereferenceable(8) ptr @_ZNSt16reverse_iteratorIN9__gnu_cxx17__normal_iteratorIPN12_GLOBAL__N_14StepESt6vectorIS3_SaIS3_EEEEEppEv(ptr noundef nonnull align 8 dereferenceable(8) %0) #7 align 2 {
  %2 = alloca ptr, align 8
  store ptr %0, ptr %2, align 8, !tbaa !194
  %3 = load ptr, ptr %2, align 8
  %4 = getelementptr inbounds nuw %"class.std::reverse_iterator", ptr %3, i32 0, i32 0
  %5 = call noundef nonnull align 8 dereferenceable(8) ptr @_ZN9__gnu_cxx17__normal_iteratorIPN12_GLOBAL__N_14StepESt6vectorIS2_SaIS2_EEEmmEv(ptr noundef nonnull align 8 dereferenceable(8) %4) #18
  ret ptr %3
}

; Function Attrs: mustprogress nounwind uwtable
define internal noundef nonnull align 8 dereferenceable(10) ptr @_ZNKSt16reverse_iteratorIN9__gnu_cxx17__normal_iteratorIPN12_GLOBAL__N_14StepESt6vectorIS3_SaIS3_EEEEEdeEv(ptr noundef nonnull align 8 dereferenceable(8) %0) #7 align 2 {
  %2 = alloca ptr, align 8
  %3 = alloca %"class.__gnu_cxx::__normal_iterator", align 8
  store ptr %0, ptr %2, align 8, !tbaa !194
  %4 = load ptr, ptr %2, align 8
  call void @llvm.lifetime.start.p0(i64 8, ptr %3) #18
  %5 = getelementptr inbounds nuw %"class.std::reverse_iterator", ptr %4, i32 0, i32 0
  call void @llvm.memcpy.p0.p0.i64(ptr align 8 %3, ptr align 8 %5, i64 8, i1 false), !tbaa.struct !196
  %6 = call noundef nonnull align 8 dereferenceable(8) ptr @_ZN9__gnu_cxx17__normal_iteratorIPN12_GLOBAL__N_14StepESt6vectorIS2_SaIS2_EEEmmEv(ptr noundef nonnull align 8 dereferenceable(8) %3) #18
  %7 = call noundef nonnull align 8 dereferenceable(10) ptr @_ZNK9__gnu_cxx17__normal_iteratorIPN12_GLOBAL__N_14StepESt6vectorIS2_SaIS2_EEEdeEv(ptr noundef nonnull align 8 dereferenceable(8) %6) #18
  call void @llvm.lifetime.end.p0(i64 8, ptr %3) #18
  ret ptr %7
}

; Function Attrs: inlinehint mustprogress uwtable
define internal noundef zeroext i1 @_ZStneIN9__gnu_cxx17__normal_iteratorIPN12_GLOBAL__N_14StepESt6vectorIS3_SaIS3_EEEEEbRKSt16reverse_iteratorIT_ESD_(ptr noundef nonnull align 8 dereferenceable(8) %0, ptr noundef nonnull align 8 dereferenceable(8) %1) #5 {
  %3 = alloca ptr, align 8
  %4 = alloca ptr, align 8
  store ptr %0, ptr %3, align 8, !tbaa !194
  store ptr %1, ptr %4, align 8, !tbaa !194
  %5 = load ptr, ptr %3, align 8, !tbaa !194
  %6 = load ptr, ptr %4, align 8, !tbaa !194
  %7 = call noundef zeroext i1 @_ZSteqIN9__gnu_cxx17__normal_iteratorIPN12_GLOBAL__N_14StepESt6vectorIS3_SaIS3_EEEEEbRKSt16reverse_iteratorIT_ESD_(ptr noundef nonnull align 8 dereferenceable(8) %5, ptr noundef nonnull align 8 dereferenceable(8) %6)
  %8 = xor i1 %7, true
  ret i1 %8
}

; Function Attrs: mustprogress nounwind uwtable
define internal void @_ZNSt6vectorIN12_GLOBAL__N_14StepESaIS1_EE4rendEv(ptr dead_on_unwind noalias writable sret(%"class.std::reverse_iterator") align 8 %0, ptr noundef nonnull align 8 dereferenceable(24) %1) #7 align 2 {
  %3 = alloca ptr, align 8
  %4 = alloca ptr, align 8
  %5 = alloca %"class.__gnu_cxx::__normal_iterator", align 8
  store ptr %0, ptr %3, align 8
  store ptr %1, ptr %4, align 8, !tbaa !104
  %6 = load ptr, ptr %4, align 8
  %7 = call ptr @_ZNSt6vectorIN12_GLOBAL__N_14StepESaIS1_EE5beginEv(ptr noundef nonnull align 8 dereferenceable(24) %6) #18
  %8 = getelementptr inbounds nuw %"class.__gnu_cxx::__normal_iterator", ptr %5, i32 0, i32 0
  store ptr %7, ptr %8, align 8
  %9 = getelementptr inbounds nuw %"class.__gnu_cxx::__normal_iterator", ptr %5, i32 0, i32 0
  %10 = load ptr, ptr %9, align 8
  call void @_ZNSt16reverse_iteratorIN9__gnu_cxx17__normal_iteratorIPN12_GLOBAL__N_14StepESt6vectorIS3_SaIS3_EEEEEC2ES8_(ptr noundef nonnull align 8 dereferenceable(8) %0, ptr %10) #18
  ret void
}

; Function Attrs: mustprogress nounwind uwtable
define internal void @_ZNSt6vectorIN12_GLOBAL__N_14StepESaIS1_EE6rbeginEv(ptr dead_on_unwind noalias writable sret(%"class.std::reverse_iterator") align 8 %0, ptr noundef nonnull align 8 dereferenceable(24) %1) #7 align 2 {
  %3 = alloca ptr, align 8
  %4 = alloca ptr, align 8
  %5 = alloca %"class.__gnu_cxx::__normal_iterator", align 8
  store ptr %0, ptr %3, align 8
  store ptr %1, ptr %4, align 8, !tbaa !104
  %6 = load ptr, ptr %4, align 8
  %7 = call ptr @_ZNSt6vectorIN12_GLOBAL__N_14StepESaIS1_EE3endEv(ptr noundef nonnull align 8 dereferenceable(24) %6) #18
  %8 = getelementptr inbounds nuw %"class.__gnu_cxx::__normal_iterator", ptr %5, i32 0, i32 0
  store ptr %7, ptr %8, align 8
  %9 = getelementptr inbounds nuw %"class.__gnu_cxx::__normal_iterator", ptr %5, i32 0, i32 0
  %10 = load ptr, ptr %9, align 8
  call void @_ZNSt16reverse_iteratorIN9__gnu_cxx17__normal_iteratorIPN12_GLOBAL__N_14StepESt6vectorIS3_SaIS3_EEEEEC2ES8_(ptr noundef nonnull align 8 dereferenceable(8) %0, ptr %10) #18
  ret void
}

; Function Attrs: mustprogress uwtable
define internal void @_ZL19pipeline_reverse_3d6PJ_XYZP8PJconsts(ptr dead_on_unwind noalias writable sret(%struct.PJ_LPZ) align 8 %0, ptr noundef byval(%struct.PJ_XYZ) align 8 %1, ptr noundef %2) #0 {
  %4 = alloca ptr, align 8
  %5 = alloca %union.PJ_COORD, align 8
  %6 = alloca ptr, align 8
  %7 = alloca %"class.std::reverse_iterator", align 8
  %8 = alloca %"class.std::reverse_iterator", align 8
  %9 = alloca i32, align 4
  %10 = alloca ptr, align 8
  %11 = alloca %union.PJ_COORD, align 8
  %12 = alloca %union.PJ_COORD, align 8
  store ptr %2, ptr %4, align 8, !tbaa !3
  call void @llvm.lifetime.start.p0(i64 32, ptr %5) #18
  call void @llvm.memset.p0.i64(ptr align 8 %5, i8 0, i64 32, i1 false)
  call void @llvm.memcpy.p0.p0.i64(ptr align 8 %5, ptr align 8 %1, i64 24, i1 false), !tbaa.struct !120
  call void @llvm.lifetime.start.p0(i64 8, ptr %6) #18
  %13 = load ptr, ptr %4, align 8, !tbaa !3
  %14 = getelementptr inbounds nuw %struct.PJconsts, ptr %13, i32 0, i32 11
  %15 = load ptr, ptr %14, align 8, !tbaa !79
  store ptr %15, ptr %6, align 8, !tbaa !81
  call void @llvm.lifetime.start.p0(i64 8, ptr %7) #18
  %16 = load ptr, ptr %6, align 8, !tbaa !81
  %17 = getelementptr inbounds nuw %"struct.(anonymous namespace)::Pipeline", ptr %16, i32 0, i32 2
  call void @_ZNSt6vectorIN12_GLOBAL__N_14StepESaIS1_EE6rbeginEv(ptr dead_on_unwind writable sret(%"class.std::reverse_iterator") align 8 %7, ptr noundef nonnull align 8 dereferenceable(24) %17) #18
  br label %18

18:                                               ; preds = %42, %3
  call void @llvm.lifetime.start.p0(i64 8, ptr %8) #18
  %19 = load ptr, ptr %6, align 8, !tbaa !81
  %20 = getelementptr inbounds nuw %"struct.(anonymous namespace)::Pipeline", ptr %19, i32 0, i32 2
  call void @_ZNSt6vectorIN12_GLOBAL__N_14StepESaIS1_EE4rendEv(ptr dead_on_unwind writable sret(%"class.std::reverse_iterator") align 8 %8, ptr noundef nonnull align 8 dereferenceable(24) %20) #18
  %21 = call noundef zeroext i1 @_ZStneIN9__gnu_cxx17__normal_iteratorIPN12_GLOBAL__N_14StepESt6vectorIS3_SaIS3_EEEEEbRKSt16reverse_iteratorIT_ESD_(ptr noundef nonnull align 8 dereferenceable(8) %7, ptr noundef nonnull align 8 dereferenceable(8) %8)
  call void @llvm.lifetime.end.p0(i64 8, ptr %8) #18
  br i1 %21, label %23, label %22

22:                                               ; preds = %18
  store i32 2, ptr %9, align 4
  br label %44

23:                                               ; preds = %18
  call void @llvm.lifetime.start.p0(i64 8, ptr %10) #18
  %24 = call noundef nonnull align 8 dereferenceable(10) ptr @_ZNKSt16reverse_iteratorIN9__gnu_cxx17__normal_iteratorIPN12_GLOBAL__N_14StepESt6vectorIS3_SaIS3_EEEEEdeEv(ptr noundef nonnull align 8 dereferenceable(8) %7)
  store ptr %24, ptr %10, align 8, !tbaa !106
  %25 = load ptr, ptr %10, align 8, !tbaa !106
  %26 = getelementptr inbounds nuw %"struct.(anonymous namespace)::Step", ptr %25, i32 0, i32 2
  %27 = load i8, ptr %26, align 1, !tbaa !112, !range !110, !noundef !111
  %28 = trunc i8 %27 to i1
  br i1 %28, label %38, label %29

29:                                               ; preds = %23
  call void @llvm.lifetime.start.p0(i64 32, ptr %11) #18
  %30 = load ptr, ptr %10, align 8, !tbaa !106
  %31 = getelementptr inbounds nuw %"struct.(anonymous namespace)::Step", ptr %30, i32 0, i32 0
  %32 = load ptr, ptr %31, align 8, !tbaa !107
  call void @llvm.memcpy.p0.p0.i64(ptr align 8 %12, ptr align 8 %5, i64 32, i1 false), !tbaa.struct !122
  call void @proj_trans(ptr dead_on_unwind writable sret(%union.PJ_COORD) align 8 %11, ptr noundef %32, i32 noundef -1, ptr noundef byval(%union.PJ_COORD) align 8 %12)
  call void @llvm.memcpy.p0.p0.i64(ptr align 8 %5, ptr align 8 %11, i64 32, i1 false), !tbaa.struct !122
  call void @llvm.lifetime.end.p0(i64 32, ptr %11) #18
  %33 = getelementptr inbounds nuw %struct.PJ_XYZT, ptr %5, i32 0, i32 0
  %34 = load double, ptr %33, align 8, !tbaa !101
  %35 = fcmp oeq double %34, 0x7FF0000000000000
  br i1 %35, label %36, label %37

36:                                               ; preds = %29
  store i32 2, ptr %9, align 4
  br label %39

37:                                               ; preds = %29
  br label %38

38:                                               ; preds = %37, %23
  store i32 0, ptr %9, align 4
  br label %39

39:                                               ; preds = %38, %36
  call void @llvm.lifetime.end.p0(i64 8, ptr %10) #18
  %40 = load i32, ptr %9, align 4
  switch i32 %40, label %44 [
    i32 0, label %41
  ]

41:                                               ; preds = %39
  br label %42

42:                                               ; preds = %41
  %43 = call noundef nonnull align 8 dereferenceable(8) ptr @_ZNSt16reverse_iteratorIN9__gnu_cxx17__normal_iteratorIPN12_GLOBAL__N_14StepESt6vectorIS3_SaIS3_EEEEEppEv(ptr noundef nonnull align 8 dereferenceable(8) %7)
  br label %18, !llvm.loop !123

44:                                               ; preds = %39, %22
  call void @llvm.lifetime.end.p0(i64 8, ptr %7) #18
  br label %45

45:                                               ; preds = %44
  call void @llvm.memcpy.p0.p0.i64(ptr align 8 %0, ptr align 8 %5, i64 24, i1 false), !tbaa.struct !120
  store i32 1, ptr %9, align 4
  call void @llvm.lifetime.end.p0(i64 8, ptr %6) #18
  call void @llvm.lifetime.end.p0(i64 32, ptr %5) #18
  ret void
}